target datalayout = "e-m:e-p270:32:32-p271:32:32-p272:64:64-i64:64-i128:128-f80:128-n8:16:32:64-S128"
target triple = "x86_64-pc-linux-gnu"

%struct.uv_handle_s = type { ptr, ptr, i32, ptr, %struct.uv__queue, %union.anon, ptr, i32 }
%struct.uv__queue = type { ptr, ptr }
%union.anon = type { [4 x ptr] }
%struct.uv_loop_s = type { ptr, i32, %struct.uv__queue, %union.anon.2, ptr, i32, i64, i32, %struct.uv__queue, %struct.uv__queue, ptr, i32, i32, %struct.uv__queue, %union.pthread_mutex_t, %struct.uv_async_s, %union.pthread_rwlock_t, ptr, %struct.uv__queue, %struct.uv__queue, %struct.uv__queue, %struct.uv__queue, %struct.uv__queue, ptr, %struct.uv__io_s, i32, %struct.anon, i64, i64, [2 x i32], %struct.uv__io_s, %struct.uv_signal_s, i32, %struct.uv__io_s, ptr, i32 }
%union.anon.2 = type { ptr }
%union.pthread_mutex_t = type { %struct.__pthread_mutex_s }
%struct.__pthread_mutex_s = type { i32, i32, i32, i32, i32, i16, i16, %struct.__pthread_internal_list }
%struct.__pthread_internal_list = type { ptr, ptr }
%struct.uv_async_s = type { ptr, ptr, i32, ptr, %struct.uv__queue, %union.anon.3, ptr, i32, ptr, %struct.uv__queue, i32 }
%union.anon.3 = type { [4 x ptr] }
%union.pthread_rwlock_t = type { %struct.__pthread_rwlock_arch_t }
%struct.__pthread_rwlock_arch_t = type { i32, i32, i32, i32, i32, i32, i32, i32, i8, [7 x i8], i64, i32 }
%struct.anon = type { ptr, i32 }
%struct.uv_signal_s = type { ptr, ptr, i32, ptr, %struct.uv__queue, %union.anon.4, ptr, i32, ptr, i32, %struct.anon.5, i32, i32 }
%union.anon.4 = type { [4 x ptr] }
%struct.anon.5 = type { ptr, ptr, ptr, i32 }
%struct.uv__io_s = type { ptr, %struct.uv__queue, %struct.uv__queue, i32, i32, i32 }

; Function Attrs: nounwind uwtable
define hidden void @uv__make_close_pending(ptr noundef %0) #0 {
  %2 = alloca ptr, align 8
  store ptr %0, ptr %2, align 8
  %3 = load ptr, ptr %2, align 8
  %4 = getelementptr inbounds nuw %struct.uv_handle_s, ptr %3, i32 0, i32 1
  %5 = load ptr, ptr %4, align 8
  %6 = getelementptr inbounds nuw %struct.uv_loop_s, ptr %5, i32 0, i32 17
  %7 = load ptr, ptr %6, align 8
  %8 = load ptr, ptr %2, align 8
  %9 = getelementptr inbounds nuw %struct.uv_handle_s, ptr %8, i32 0, i32 6
  store ptr %7, ptr %9, align 8
  %10 = load ptr, ptr %2, align 8
  %11 = load ptr, ptr %2, align 8
  %12 = getelementptr inbounds nuw %struct.uv_handle_s, ptr %11, i32 0, i32 1
  %13 = load ptr, ptr %12, align 8
  %14 = getelementptr inbounds nuw %struct.uv_loop_s, ptr %13, i32 0, i32 17
  store ptr %10, ptr %14, align 8
  ret void
}

; Function Attrs: nounwind uwtable
define dso_local void @uv_close(ptr noundef %0, ptr noundef %1) #0 {
  %3 = alloca ptr, align 8
  %4 = alloca ptr, align 8
  store ptr %0, ptr %3, align 8
  store ptr %1, ptr %4, align 8
  %5 = load ptr, ptr %3, align 8
  %6 = getelementptr inbounds nuw %struct.uv_handle_s, ptr %5, i32 0, i32 7
  %7 = load i32, ptr %6, align 8
  %8 = or i32 %7, 1
  store i32 %8, ptr %6, align 8
  %9 = load ptr, ptr %4, align 8
  %10 = load ptr, ptr %3, align 8
  %11 = getelementptr inbounds nuw %struct.uv_handle_s, ptr %10, i32 0, i32 3
  store ptr %9, ptr %11, align 8
  %12 = load ptr, ptr %3, align 8
  %13 = getelementptr inbounds nuw %struct.uv_handle_s, ptr %12, i32 0, i32 2
  %14 = load i32, ptr %13, align 8
  switch i32 %14, label %43 [
    i32 7, label %15
    i32 14, label %17
    i32 12, label %19
    i32 15, label %21
    i32 9, label %23
    i32 2, label %25
    i32 6, label %27
    i32 1, label %29
    i32 13, label %31
    i32 10, label %33
    i32 3, label %35
    i32 8, label %37
    i32 4, label %39
    i32 16, label %41
  ]

15:                                               ; preds = %2
  %16 = load ptr, ptr %3, align 8
  call void @uv__pipe_close(ptr noundef %16)
  br label %44

17:                                               ; preds = %2
  %18 = load ptr, ptr %3, align 8
  call void @uv__tty_close(ptr noundef %18)
  br label %44

19:                                               ; preds = %2
  %20 = load ptr, ptr %3, align 8
  call void @uv__tcp_close(ptr noundef %20)
  br label %44

21:                                               ; preds = %2
  %22 = load ptr, ptr %3, align 8
  call void @uv__udp_close(ptr noundef %22)
  br label %44

23:                                               ; preds = %2
  %24 = load ptr, ptr %3, align 8
  call void @uv__prepare_close(ptr noundef %24)
  br label %44

25:                                               ; preds = %2
  %26 = load ptr, ptr %3, align 8
  call void @uv__check_close(ptr noundef %26)
  br label %44

27:                                               ; preds = %2
  %28 = load ptr, ptr %3, align 8
  call void @uv__idle_close(ptr noundef %28)
  br label %44

29:                                               ; preds = %2
  %30 = load ptr, ptr %3, align 8
  call void @uv__async_close(ptr noundef %30)
  br label %44

31:                                               ; preds = %2
  %32 = load ptr, ptr %3, align 8
  call void @uv__timer_close(ptr noundef %32)
  br label %44

33:                                               ; preds = %2
  %34 = load ptr, ptr %3, align 8
  call void @uv__process_close(ptr noundef %34)
  br label %44

35:                                               ; preds = %2
  %36 = load ptr, ptr %3, align 8
  call void @uv__fs_event_close(ptr noundef %36)
  br label %44

37:                                               ; preds = %2
  %38 = load ptr, ptr %3, align 8
  call void @uv__poll_close(ptr noundef %38)
  br label %44

39:                                               ; preds = %2
  %40 = load ptr, ptr %3, align 8
  call void @uv__fs_poll_close(ptr noundef %40)
  br label %46

41:                                               ; preds = %2
  %42 = load ptr, ptr %3, align 8
  call void @uv__signal_close(ptr noundef %42)
  br label %44

43:                                               ; preds = %2
  br label %44

44:                                               ; preds = %43, %41, %37, %35, %33, %31, %29, %27, %25, %23, %21, %19, %17, %15
  %45 = load ptr, ptr %3, align 8
  call void @uv__make_close_pending(ptr noundef %45)
  br label %46

46:                                               ; preds = %44, %39
  ret void
}