; Function Attrs: nounwind uwtable
define dso_local void @uv_close(ptr noundef initializes((24, 32)) %0, ptr noundef %1) local_unnamed_addr #0 {
  %3 = getelementptr inbounds nuw i8, ptr %0, i64 88
  %4 = load i32, ptr %3, align 8
  %5 = or i32 %4, 1
  store i32 %5, ptr %3, align 8
  %6 = getelementptr inbounds nuw i8, ptr %0, i64 24
  store ptr %1, ptr %6, align 8
  %7 = getelementptr inbounds nuw i8, ptr %0, i64 16
  %8 = load i32, ptr %7, align 8
  switch i32 %8, label %23 [
    i32 7, label %9
    i32 14, label %10
    i32 12, label %11
    i32 15, label %12
    i32 9, label %13
    i32 2, label %14
    i32 6, label %15
    i32 1, label %16
    i32 13, label %17
    i32 10, label %18
    i32 3, label %19
    i32 8, label %20
    i32 4, label %21
    i32 16, label %22
  ]

9:                                                ; preds = %2
  tail call void @uv__pipe_close(ptr noundef nonnull %0) #23
  br label %23

10:                                               ; preds = %2
  tail call void @uv__tty_close(ptr noundef nonnull %0) #23
  br label %23

11:                                               ; preds = %2
  tail call void @uv__tcp_close(ptr noundef nonnull %0) #23
  br label %23

12:                                               ; preds = %2
  tail call void @uv__udp_close(ptr noundef nonnull %0) #23
  br label %23

13:                                               ; preds = %2
  tail call void @uv__prepare_close(ptr noundef nonnull %0) #23
  br label %23

14:                                               ; preds = %2
  tail call void @uv__check_close(ptr noundef nonnull %0) #23
  br label %23

15:                                               ; preds = %2
  tail call void @uv__idle_close(ptr noundef nonnull %0) #23
  br label %23

16:                                               ; preds = %2
  tail call void @uv__async_close(ptr noundef nonnull %0) #23
  br label %23

17:                                               ; preds = %2
  tail call void @uv__timer_close(ptr noundef nonnull %0) #23
  br label %23

18:                                               ; preds = %2
  tail call void @uv__process_close(ptr noundef nonnull %0) #23
  br label %23

19:                                               ; preds = %2
  tail call void @uv__fs_event_close(ptr noundef nonnull %0) #23
  br label %23

20:                                               ; preds = %2
  tail call void @uv__poll_close(ptr noundef nonnull %0) #23
  br label %23

21:                                               ; preds = %2
  tail call void @uv__fs_poll_close(ptr noundef nonnull %0) #23
  br label %29

22:                                               ; preds = %2
  tail call void @uv__signal_close(ptr noundef nonnull %0) #23
  br label %23

23:                                               ; preds = %2, %22, %20, %19, %18, %17, %16, %15, %14, %13, %12, %11, %10, %9
  %24 = getelementptr inbounds nuw i8, ptr %0, i64 8
  %25 = load ptr, ptr %24, align 8
  %26 = getelementptr inbounds nuw i8, ptr %25, i64 360
  %27 = load ptr, ptr %26, align 8
  %28 = getelementptr inbounds nuw i8, ptr %0, i64 80
  store ptr %27, ptr %28, align 8
  store ptr %0, ptr %26, align 8
  br label %29

29:                                               ; preds = %23, %21
  ret void
}